target datalayout = "e-m:e-p270:32:32-p271:32:32-p272:64:64-i64:64-i128:128-f80:128-n8:16:32:64-S128"
target triple = "x86_64-pc-linux-gnu"

%struct.Aig_Obj_t_ = type { %union.anon, ptr, ptr, i64, i32, i32, %union.anon.0 }
%union.anon = type { ptr }
%union.anon.0 = type { ptr }
%struct.Aig_Man_t_ = type { ptr, ptr, ptr, ptr, ptr, ptr, ptr, %struct.Aig_Obj_t_, i32, i32, i32, i32, i32, i32, [7 x i32], i32, ptr, i32, ptr, i32, ptr, i32, i32, i32, ptr, i32, i32, i32, i32, i32, ptr, ptr, i32, ptr, ptr, i32, ptr, ptr, i32, i32, i32, ptr, ptr, ptr, ptr, ptr, ptr, ptr, ptr, ptr, ptr, ptr, ptr, ptr, ptr, i32, ptr, ptr, ptr, ptr, i32, i64, i64, i64, ptr, ptr }
%struct.Iso_Man_t_ = type { ptr, ptr, i32, i32, i32, i32, i32, i32, ptr, ptr, ptr, ptr, ptr, i64, i64, i64, i64, i64 }
%struct.Vec_Ptr_t_ = type { i32, i32, ptr }

; Function Attrs: inlinehint nounwind uwtable
define internal i32 @Vec_PtrSize(ptr noundef %0) #4 {
  %2 = alloca ptr, align 8
  store ptr %0, ptr %2, align 8, !tbaa !57
  %3 = load ptr, ptr %2, align 8, !tbaa !57
  %4 = getelementptr inbounds nuw %struct.Vec_Ptr_t_, ptr %3, i32 0, i32 1
  %5 = load i32, ptr %4, align 4, !tbaa !58
  ret i32 %5
}

; Function Attrs: inlinehint nounwind uwtable
define internal ptr @Vec_PtrAlloc(i32 noundef %0) #4 {
  %2 = alloca i32, align 4
  %3 = alloca ptr, align 8
  store i32 %0, ptr %2, align 4, !tbaa !8
  call void @llvm.lifetime.start.p0(i64 8, ptr %3) #11
  %4 = call noalias ptr @malloc(i64 noundef 16) #13
  store ptr %4, ptr %3, align 8, !tbaa !57
  %5 = load i32, ptr %2, align 4, !tbaa !8
  %6 = icmp sgt i32 %5, 0
  br i1 %6, label %7, label %11

7:                                                ; preds = %1
  %8 = load i32, ptr %2, align 4, !tbaa !8
  %9 = icmp slt i32 %8, 8
  br i1 %9, label %10, label %11

10:                                               ; preds = %7
  store i32 8, ptr %2, align 4, !tbaa !8
  br label %11

11:                                               ; preds = %10, %7, %1
  %12 = load ptr, ptr %3, align 8, !tbaa !57
  %13 = getelementptr inbounds nuw %struct.Vec_Ptr_t_, ptr %12, i32 0, i32 1
  store i32 0, ptr %13, align 4, !tbaa !58
  %14 = load i32, ptr %2, align 4, !tbaa !8
  %15 = load ptr, ptr %3, align 8, !tbaa !57
  %16 = getelementptr inbounds nuw %struct.Vec_Ptr_t_, ptr %15, i32 0, i32 0
  store i32 %14, ptr %16, align 8, !tbaa !60
  %17 = load ptr, ptr %3, align 8, !tbaa !57
  %18 = getelementptr inbounds nuw %struct.Vec_Ptr_t_, ptr %17, i32 0, i32 0
  %19 = load i32, ptr %18, align 8, !tbaa !60
  %20 = icmp ne i32 %19, 0
  br i1 %20, label %21, label %28

21:                                               ; preds = %11
  %22 = load ptr, ptr %3, align 8, !tbaa !57
  %23 = getelementptr inbounds nuw %struct.Vec_Ptr_t_, ptr %22, i32 0, i32 0
  %24 = load i32, ptr %23, align 8, !tbaa !60
  %25 = sext i32 %24 to i64
  %26 = mul i64 8, %25
  %27 = call noalias ptr @malloc(i64 noundef %26) #13
  br label %29

28:                                               ; preds = %11
  br label %29

29:                                               ; preds = %28, %21
  %30 = phi ptr [ %27, %21 ], [ null, %28 ]
  %31 = load ptr, ptr %3, align 8, !tbaa !57
  %32 = getelementptr inbounds nuw %struct.Vec_Ptr_t_, ptr %31, i32 0, i32 2
  store ptr %30, ptr %32, align 8, !tbaa !61
  %33 = load ptr, ptr %3, align 8, !tbaa !57
  call void @llvm.lifetime.end.p0(i64 8, ptr %3) #11
  ret ptr %33
}

; Function Attrs: inlinehint nounwind uwtable
define internal i32 @Abc_PrimeCudd(i32 noundef %0) #4 {
  %2 = alloca i32, align 4
  %3 = alloca i32, align 4
  %4 = alloca i32, align 4
  store i32 %0, ptr %2, align 4, !tbaa !8
  call void @llvm.lifetime.start.p0(i64 4, ptr %3) #11
  call void @llvm.lifetime.start.p0(i64 4, ptr %4) #11
  %5 = load i32, ptr %2, align 4, !tbaa !8
  %6 = add i32 %5, -1
  store i32 %6, ptr %2, align 4, !tbaa !8
  br label %7

7:                                                ; preds = %32, %1
  %8 = load i32, ptr %2, align 4, !tbaa !8
  %9 = add i32 %8, 1
  store i32 %9, ptr %2, align 4, !tbaa !8
  %10 = load i32, ptr %2, align 4, !tbaa !8
  %11 = and i32 %10, 1
  %12 = icmp ne i32 %11, 0
  br i1 %12, label %13, label %30

13:                                               ; preds = %7
  store i32 1, ptr %4, align 4, !tbaa !8
  store i32 3, ptr %3, align 4, !tbaa !8
  br label %14

14:                                               ; preds = %26, %13
  %15 = load i32, ptr %3, align 4, !tbaa !8
  %16 = load i32, ptr %3, align 4, !tbaa !8
  %17 = mul nsw i32 %15, %16
  %18 = load i32, ptr %2, align 4, !tbaa !8
  %19 = icmp ule i32 %17, %18
  br i1 %19, label %20, label %29

20:                                               ; preds = %14
  %21 = load i32, ptr %2, align 4, !tbaa !8
  %22 = load i32, ptr %3, align 4, !tbaa !8
  %23 = urem i32 %21, %22
  %24 = icmp eq i32 %23, 0
  br i1 %24, label %25, label %26

25:                                               ; preds = %20
  store i32 0, ptr %4, align 4, !tbaa !8
  br label %29

26:                                               ; preds = %20
  %27 = load i32, ptr %3, align 4, !tbaa !8
  %28 = add nsw i32 %27, 2
  store i32 %28, ptr %3, align 4, !tbaa !8
  br label %14, !llvm.loop !55

29:                                               ; preds = %25, %14
  br label %31

30:                                               ; preds = %7
  store i32 0, ptr %4, align 4, !tbaa !8
  br label %31

31:                                               ; preds = %30, %29
  br label %32

32:                                               ; preds = %31
  %33 = load i32, ptr %4, align 4, !tbaa !8
  %34 = icmp ne i32 %33, 0
  %35 = xor i1 %34, true
  br i1 %35, label %7, label %36, !llvm.loop !56

36:                                               ; preds = %32
  %37 = load i32, ptr %2, align 4, !tbaa !8
  call void @llvm.lifetime.end.p0(i64 4, ptr %4) #11
  call void @llvm.lifetime.end.p0(i64 4, ptr %3) #11
  ret i32 %37
}

; Function Attrs: inlinehint nounwind uwtable
define internal i32 @Aig_ManObjNumMax(ptr noundef %0) #4 {
  %2 = alloca ptr, align 8
  store ptr %0, ptr %2, align 8, !tbaa !21
  %3 = load ptr, ptr %2, align 8, !tbaa !21
  %4 = getelementptr inbounds nuw %struct.Aig_Man_t_, ptr %3, i32 0, i32 4
  %5 = load ptr, ptr %4, align 8, !tbaa !54
  %6 = call i32 @Vec_PtrSize(ptr noundef %5)
  ret i32 %6
}

; Function Attrs: nounwind uwtable
define ptr @Iso_ManStart(ptr noundef %0) #0 {
  %2 = alloca ptr, align 8
  %3 = alloca ptr, align 8
  store ptr %0, ptr %2, align 8, !tbaa !21
  call void @llvm.lifetime.start.p0(i64 8, ptr %3) #11
  %4 = call noalias ptr @calloc(i64 noundef 1, i64 noundef 120) #12
  store ptr %4, ptr %3, align 8, !tbaa !40
  %5 = load ptr, ptr %2, align 8, !tbaa !21
  %6 = load ptr, ptr %3, align 8, !tbaa !40
  %7 = getelementptr inbounds nuw %struct.Iso_Man_t_, ptr %6, i32 0, i32 0
  store ptr %5, ptr %7, align 8, !tbaa !42
  %8 = load ptr, ptr %2, align 8, !tbaa !21
  %9 = call i32 @Aig_ManObjNumMax(ptr noundef %8)
  %10 = load ptr, ptr %3, align 8, !tbaa !40
  %11 = getelementptr inbounds nuw %struct.Iso_Man_t_, ptr %10, i32 0, i32 6
  store i32 %9, ptr %11, align 8, !tbaa !45
  %12 = load ptr, ptr %3, align 8, !tbaa !40
  %13 = getelementptr inbounds nuw %struct.Iso_Man_t_, ptr %12, i32 0, i32 6
  %14 = load i32, ptr %13, align 8, !tbaa !45
  %15 = sext i32 %14 to i64
  %16 = call noalias ptr @calloc(i64 noundef %15, i64 noundef 24) #12
  %17 = load ptr, ptr %3, align 8, !tbaa !40
  %18 = getelementptr inbounds nuw %struct.Iso_Man_t_, ptr %17, i32 0, i32 1
  store ptr %16, ptr %18, align 8, !tbaa !46
  %19 = load ptr, ptr %3, align 8, !tbaa !40
  %20 = getelementptr inbounds nuw %struct.Iso_Man_t_, ptr %19, i32 0, i32 6
  %21 = load i32, ptr %20, align 8, !tbaa !45
  %22 = call i32 @Abc_PrimeCudd(i32 noundef %21)
  %23 = load ptr, ptr %3, align 8, !tbaa !40
  %24 = getelementptr inbounds nuw %struct.Iso_Man_t_, ptr %23, i32 0, i32 7
  store i32 %22, ptr %24, align 4, !tbaa !47
  %25 = load ptr, ptr %3, align 8, !tbaa !40
  %26 = getelementptr inbounds nuw %struct.Iso_Man_t_, ptr %25, i32 0, i32 7
  %27 = load i32, ptr %26, align 4, !tbaa !47
  %28 = sext i32 %27 to i64
  %29 = call noalias ptr @calloc(i64 noundef %28, i64 noundef 4) #12
  %30 = load ptr, ptr %3, align 8, !tbaa !40
  %31 = getelementptr inbounds nuw %struct.Iso_Man_t_, ptr %30, i32 0, i32 8
  store ptr %29, ptr %31, align 8, !tbaa !48
  %32 = call ptr @Vec_PtrAlloc(i32 noundef 1000)
  %33 = load ptr, ptr %3, align 8, !tbaa !40
  %34 = getelementptr inbounds nuw %struct.Iso_Man_t_, ptr %33, i32 0, i32 9
  store ptr %32, ptr %34, align 8, !tbaa !49
  %35 = call ptr @Vec_PtrAlloc(i32 noundef 1000)
  %36 = load ptr, ptr %3, align 8, !tbaa !40
  %37 = getelementptr inbounds nuw %struct.Iso_Man_t_, ptr %36, i32 0, i32 10
  store ptr %35, ptr %37, align 8, !tbaa !50
  %38 = call ptr @Vec_PtrAlloc(i32 noundef 1000)
  %39 = load ptr, ptr %3, align 8, !tbaa !40
  %40 = getelementptr inbounds nuw %struct.Iso_Man_t_, ptr %39, i32 0, i32 11
  store ptr %38, ptr %40, align 8, !tbaa !51
  %41 = call ptr @Vec_PtrAlloc(i32 noundef 1000)
  %42 = load ptr, ptr %3, align 8, !tbaa !40
  %43 = getelementptr inbounds nuw %struct.Iso_Man_t_, ptr %42, i32 0, i32 12
  store ptr %41, ptr %43, align 8, !tbaa !52
  %44 = load ptr, ptr %3, align 8, !tbaa !40
  %45 = getelementptr inbounds nuw %struct.Iso_Man_t_, ptr %44, i32 0, i32 2
  store i32 1, ptr %45, align 8, !tbaa !53
  %46 = load ptr, ptr %3, align 8, !tbaa !40
  call void @llvm.lifetime.end.p0(i64 8, ptr %3) #11
  ret ptr %46
}