; Function Attrs: nofree nounwind memory(readwrite, argmem: read) uwtable
define noalias noundef ptr @Iso_ManStart(ptr noundef %0) local_unnamed_addr #6 {
  %2 = tail call noalias dereferenceable_or_null(120) ptr @calloc(i64 noundef 1, i64 noundef 120) #24
  store ptr %0, ptr %2, align 8, !tbaa !34
  %3 = getelementptr i8, ptr %0, i64 32
  %.val = load ptr, ptr %3, align 8, !tbaa !37
  %4 = getelementptr i8, ptr %.val, i64 4
  %.val.val = load i32, ptr %4, align 4, !tbaa !38
  %5 = getelementptr inbounds nuw i8, ptr %2, i64 32
  store i32 %.val.val, ptr %5, align 8, !tbaa !40
  %6 = sext i32 %.val.val to i64
  %7 = tail call noalias ptr @calloc(i64 noundef %6, i64 noundef 24) #24
  %8 = getelementptr inbounds nuw i8, ptr %2, i64 8
  store ptr %7, ptr %8, align 8, !tbaa !41
  %9 = add i32 %.val.val, -1
  br label %.loopexit.i

.loopexit.i:                                      ; preds = %.loopexit.i.backedge, %1
  %.012.i = phi i32 [ %9, %1 ], [ %10, %.loopexit.i.backedge ]
  %10 = add i32 %.012.i, 1
  %11 = and i32 %.012.i, 1
  %.not.not.i = icmp eq i32 %11, 0
  br i1 %.not.not.i, label %.preheader.i, label %.loopexit.i.backedge

.loopexit.i.backedge:                             ; preds = %.lr.ph.i, %.loopexit.i
  br label %.loopexit.i, !llvm.loop !42

.preheader.i:                                     ; preds = %.loopexit.i
  %.not15.i = icmp ult i32 %10, 9
  br i1 %.not15.i, label %Abc_PrimeCudd.exit, label %.lr.ph.i

12:                                               ; preds = %.lr.ph.i
  %13 = add nuw nsw i32 %.01116.i, 2
  %14 = mul nuw nsw i32 %13, %13
  %.not.i = icmp ugt i32 %14, %10
  br i1 %.not.i, label %Abc_PrimeCudd.exit, label %.lr.ph.i, !llvm.loop !43

.lr.ph.i:                                         ; preds = %.preheader.i, %12
  %.01116.i = phi i32 [ %13, %12 ], [ 3, %.preheader.i ]
  %15 = urem i32 %10, %.01116.i
  %16 = icmp eq i32 %15, 0
  br i1 %16, label %.loopexit.i.backedge, label %12, !llvm.loop !42

Abc_PrimeCudd.exit:                               ; preds = %.preheader.i, %12
  %17 = getelementptr inbounds nuw i8, ptr %2, i64 36
  store i32 %10, ptr %17, align 4, !tbaa !44
  %18 = sext i32 %10 to i64
  %19 = tail call noalias ptr @calloc(i64 noundef %18, i64 noundef 4) #24
  %20 = getelementptr inbounds nuw i8, ptr %2, i64 40
  store ptr %19, ptr %20, align 8, !tbaa !45
  %21 = tail call noalias dereferenceable_or_null(16) ptr @malloc(i64 noundef 16) #25
  %22 = getelementptr inbounds nuw i8, ptr %21, i64 4
  store i32 0, ptr %22, align 4, !tbaa !38
  store i32 1000, ptr %21, align 8, !tbaa !46
  %23 = tail call noalias dereferenceable_or_null(8000) ptr @malloc(i64 noundef 8000) #25
  %24 = getelementptr inbounds nuw i8, ptr %21, i64 8
  store ptr %23, ptr %24, align 8, !tbaa !47
  %25 = getelementptr inbounds nuw i8, ptr %2, i64 48
  store ptr %21, ptr %25, align 8, !tbaa !48
  %26 = tail call noalias dereferenceable_or_null(16) ptr @malloc(i64 noundef 16) #25
  %27 = getelementptr inbounds nuw i8, ptr %26, i64 4
  store i32 0, ptr %27, align 4, !tbaa !38
  store i32 1000, ptr %26, align 8, !tbaa !46
  %28 = tail call noalias dereferenceable_or_null(8000) ptr @malloc(i64 noundef 8000) #25
  %29 = getelementptr inbounds nuw i8, ptr %26, i64 8
  store ptr %28, ptr %29, align 8, !tbaa !47
  %30 = getelementptr inbounds nuw i8, ptr %2, i64 56
  store ptr %26, ptr %30, align 8, !tbaa !49
  %31 = tail call noalias dereferenceable_or_null(16) ptr @malloc(i64 noundef 16) #25
  %32 = getelementptr inbounds nuw i8, ptr %31, i64 4
  store i32 0, ptr %32, align 4, !tbaa !38
  store i32 1000, ptr %31, align 8, !tbaa !46
  %33 = tail call noalias dereferenceable_or_null(8000) ptr @malloc(i64 noundef 8000) #25
  %34 = getelementptr inbounds nuw i8, ptr %31, i64 8
  store ptr %33, ptr %34, align 8, !tbaa !47
  %35 = getelementptr inbounds nuw i8, ptr %2, i64 64
  store ptr %31, ptr %35, align 8, !tbaa !50
  %36 = tail call noalias dereferenceable_or_null(16) ptr @malloc(i64 noundef 16) #25
  %37 = getelementptr inbounds nuw i8, ptr %36, i64 4
  store i32 0, ptr %37, align 4, !tbaa !38
  store i32 1000, ptr %36, align 8, !tbaa !46
  %38 = tail call noalias dereferenceable_or_null(8000) ptr @malloc(i64 noundef 8000) #25
  %39 = getelementptr inbounds nuw i8, ptr %36, i64 8
  store ptr %38, ptr %39, align 8, !tbaa !47
  %40 = getelementptr inbounds nuw i8, ptr %2, i64 72
  store ptr %36, ptr %40, align 8, !tbaa !51
  %41 = getelementptr inbounds nuw i8, ptr %2, i64 16
  store i32 1, ptr %41, align 8, !tbaa !52
  ret ptr %2
}